; Function Attrs: mustprogress uwtable
define void @_ZN32pxrInternal_v0_24__pxrReserved__33HgiShaderFunctionTessellationDescC2Ev(ptr noundef nonnull align 8 dereferenceable(80) initializes((0, 12)) %0) unnamed_addr #3 align 2 personality ptr @__gxx_personality_v0 {
  %2 = alloca %"class.std::allocator", align 1
  %3 = alloca %"class.std::allocator", align 1
  store i32 0, ptr %0, align 8
  %4 = getelementptr inbounds nuw i8, ptr %0, i64 4
  store i32 0, ptr %4, align 4
  %5 = getelementptr inbounds nuw i8, ptr %0, i64 8
  store i32 1, ptr %5, align 8
  %6 = getelementptr inbounds nuw i8, ptr %0, i64 16
  call void @_ZNSaIcEC1Ev(ptr noundef nonnull align 1 dereferenceable(1) %2) #16
  %7 = invoke noundef ptr @_ZNSt7__cxx1112basic_stringIcSt11char_traitsIcESaIcEE13_M_local_dataEv(ptr noundef nonnull align 8 dereferenceable(32) %6)
          to label %.noexc unwind label %14

.noexc:                                           ; preds = %1
  invoke void @_ZNSt7__cxx1112basic_stringIcSt11char_traitsIcESaIcEE12_Alloc_hiderC1EPcRKS3_(ptr noundef nonnull align 8 dereferenceable(32) %6, ptr noundef %7, ptr noundef nonnull align 1 dereferenceable(1) %2)
          to label %.noexc4 unwind label %14

.noexc4:                                          ; preds = %.noexc
  invoke void @_ZNSt7__cxx1112basic_stringIcSt11char_traitsIcESaIcEE12_M_constructIPKcEEvT_S8_St20forward_iterator_tag(ptr noundef nonnull align 8 dereferenceable(32) %6, ptr noundef nonnull @.str, ptr noundef nonnull getelementptr inbounds nuw (i8, ptr @.str, i64 1))
          to label %_ZNSt7__cxx1112basic_stringIcSt11char_traitsIcESaIcEEC2IS3_EEPKcRKS3_.exit unwind label %8

8:                                                ; preds = %.noexc4
  %9 = landingpad { ptr, i32 }
          cleanup
  call void @_ZNSaIcED2Ev(ptr noundef nonnull align 8 dereferenceable(32) %6) #16
  br label %.body

_ZNSt7__cxx1112basic_stringIcSt11char_traitsIcESaIcEEC2IS3_EEPKcRKS3_.exit: ; preds = %.noexc4
  call void @_ZNSaIcED1Ev(ptr noundef nonnull align 1 dereferenceable(1) %2) #16
  %10 = getelementptr inbounds nuw i8, ptr %0, i64 48
  call void @_ZNSaIcEC1Ev(ptr noundef nonnull align 1 dereferenceable(1) %3) #16
  %11 = invoke noundef ptr @_ZNSt7__cxx1112basic_stringIcSt11char_traitsIcESaIcEE13_M_local_dataEv(ptr noundef nonnull align 8 dereferenceable(32) %10)
          to label %.noexc5 unwind label %16

.noexc5:                                          ; preds = %_ZNSt7__cxx1112basic_stringIcSt11char_traitsIcESaIcEEC2IS3_EEPKcRKS3_.exit
  invoke void @_ZNSt7__cxx1112basic_stringIcSt11char_traitsIcESaIcEE12_Alloc_hiderC1EPcRKS3_(ptr noundef nonnull align 8 dereferenceable(32) %10, ptr noundef %11, ptr noundef nonnull align 1 dereferenceable(1) %3)
          to label %.noexc6 unwind label %16

.noexc6:                                          ; preds = %.noexc5
  invoke void @_ZNSt7__cxx1112basic_stringIcSt11char_traitsIcESaIcEE12_M_constructIPKcEEvT_S8_St20forward_iterator_tag(ptr noundef nonnull align 8 dereferenceable(32) %10, ptr noundef nonnull @.str, ptr noundef nonnull getelementptr inbounds nuw (i8, ptr @.str, i64 1))
          to label %_ZNSt7__cxx1112basic_stringIcSt11char_traitsIcESaIcEEC2IS3_EEPKcRKS3_.exit9 unwind label %12

12:                                               ; preds = %.noexc6
  %13 = landingpad { ptr, i32 }
          cleanup
  call void @_ZNSaIcED2Ev(ptr noundef nonnull align 8 dereferenceable(32) %10) #16
  br label %.body7

_ZNSt7__cxx1112basic_stringIcSt11char_traitsIcESaIcEEC2IS3_EEPKcRKS3_.exit9: ; preds = %.noexc6
  call void @_ZNSaIcED1Ev(ptr noundef nonnull align 1 dereferenceable(1) %3) #16
  ret void

14:                                               ; preds = %.noexc, %1
  %15 = landingpad { ptr, i32 }
          cleanup
  br label %.body

.body:                                            ; preds = %8, %14
  %eh.lpad-body = phi { ptr, i32 } [ %15, %14 ], [ %9, %8 ]
  call void @_ZNSaIcED1Ev(ptr noundef nonnull align 1 dereferenceable(1) %2) #16
  br label %18

16:                                               ; preds = %.noexc5, %_ZNSt7__cxx1112basic_stringIcSt11char_traitsIcESaIcEEC2IS3_EEPKcRKS3_.exit
  %17 = landingpad { ptr, i32 }
          cleanup
  br label %.body7

.body7:                                           ; preds = %12, %16
  %eh.lpad-body8 = phi { ptr, i32 } [ %17, %16 ], [ %13, %12 ]
  call void @_ZNSaIcED1Ev(ptr noundef nonnull align 1 dereferenceable(1) %3) #16
  call void @_ZNSt7__cxx1112basic_stringIcSt11char_traitsIcESaIcEED1Ev(ptr noundef nonnull align 8 dereferenceable(32) %6) #16
  br label %18

18:                                               ; preds = %.body7, %.body
  %.pn = phi { ptr, i32 } [ %eh.lpad-body8, %.body7 ], [ %eh.lpad-body, %.body ]
  resume { ptr, i32 } %.pn
}